target datalayout = "e-m:e-p270:32:32-p271:32:32-p272:64:64-i64:64-i128:128-f80:128-n8:16:32:64-S128"
target triple = "x86_64-pc-linux-gnu"

%struct.ssl_st = type { i32, ptr, ptr, ptr, %struct.CRYPTO_REF_COUNT, ptr, %struct.crypto_ex_data_st }
%struct.CRYPTO_REF_COUNT = type { i32 }
%struct.crypto_ex_data_st = type { ptr, ptr }
%struct.ssl_connection_st = type { %struct.ssl_st, ptr, i32, ptr, ptr, ptr, i32, ptr, i32, i32, i32, i32, %struct.OSSL_TIME, %struct.OSSL_TIME, %struct.ossl_statem_st, i32, ptr, ptr, i64, i64, i64, %struct.ossl_quic_tls_callbacks_st, ptr, ptr, %struct.anon, ptr, ptr, ptr, i32, ptr, %struct.ssl_dane_st, ptr, ptr, ptr, ptr, i32, [64 x i8], [64 x i8], [64 x i8], [64 x i8], [64 x i8], [64 x i8], [64 x i8], [64 x i8], [64 x i8], [64 x i8], [64 x i8], [64 x i8], ptr, [64 x i8], i64, i32, i64, [32 x i8], ptr, ptr, ptr, i64, ptr, [32 x i8], i64, i32, ptr, ptr, i32, i32, ptr, ptr, ptr, ptr, ptr, i64, ptr, ptr, i64, i32, i32, i32, i64, i32, i32, i64, i64, i64, %struct.anon.1, ptr, i32, ptr, ptr, ptr, i32, ptr, ptr, ptr, i32, i32, i32, i32, ptr, i64, i32, ptr, %struct.srp_ctx_st, ptr, %struct.record_layer_st, ptr, ptr, ptr, ptr, i64, i32, i32, i32, i64, i64, i64, ptr, ptr, ptr, ptr, ptr, i64, ptr, i64, ptr, i64 }
%struct.OSSL_TIME = type { i64 }
%struct.ossl_statem_st = type { i32, i32, i32, i32, i32, i32, i32, i32, i32, i32, i32, i32, i32, ptr, ptr, ptr, i8 }
%struct.ossl_quic_tls_callbacks_st = type { ptr, ptr, ptr, ptr, ptr, ptr }
%struct.anon = type { i64, [32 x i8], [32 x i8], ptr, ptr, i32, i32, i32, i32, [2 x i8], i32, i32, i32, i32, %struct.anon.0, [64 x i8], i64, [64 x i8], i64, i32, i32, ptr, i64, ptr, i64, i32, i8, i8, i16, ptr, i16 }
%struct.anon.0 = type { [128 x i8], i64, [128 x i8], i64, i64, i32, ptr, ptr, [4 x ptr], [4 x i16], i64, i32, ptr, i64, ptr, i64, ptr, ptr, ptr, i32, i64, ptr, i32, ptr, i64, ptr, i64, ptr, i64, ptr, ptr, ptr, ptr, i64, i64, ptr, ptr, i32, i32, i32, i32 }
%struct.ssl_dane_st = type { ptr, ptr, ptr, ptr, ptr, i32, i32, i32, i64 }
%struct.anon.1 = type { [29 x i8], ptr, ptr, ptr, i32, ptr, i16, i32, %struct.anon.2, i32, i32, i64, ptr, i64, ptr, i64, ptr, i64, ptr, i64, ptr, i64, ptr, ptr, ptr, ptr, ptr, ptr, ptr, i64, ptr, i64, i32, i32, i32, i32, ptr, i64, i32, i8, i32, [4 x i32], i32, i8, i8, i8, i8 }
%struct.anon.2 = type { ptr, ptr, ptr, i64 }
%struct.srp_ctx_st = type { ptr, ptr, ptr, ptr, ptr, ptr, ptr, ptr, ptr, ptr, ptr, ptr, ptr, ptr, i32, i64 }
%struct.record_layer_st = type { ptr, ptr, ptr, ptr, ptr, ptr, ptr, ptr, i64, i32, i64, [4 x i8], i64, i64, i8, ptr, i32, ptr, ptr, ptr, i64, i64, i64, i64, [32 x %struct.tls_record_st] }
%struct.tls_record_st = type { ptr, i32, i8, ptr, ptr, i64, i64, i16, [8 x i8] }
%struct.ssl_ctx_st = type { ptr, ptr, ptr, ptr, ptr, ptr, ptr, i64, ptr, ptr, i32, %struct.OSSL_TIME, ptr, ptr, ptr, %struct.anon.3, %struct.CRYPTO_REF_COUNT, ptr, ptr, ptr, ptr, ptr, ptr, ptr, ptr, ptr, %struct.crypto_ex_data_st, ptr, ptr, ptr, ptr, ptr, ptr, ptr, i64, i32, i32, i32, i64, ptr, ptr, i32, ptr, ptr, i32, i64, [32 x i8], ptr, ptr, ptr, i32, ptr, ptr, ptr, i64, i64, i64, i64, ptr, ptr, ptr, ptr, ptr, %struct.anon.4, ptr, ptr, ptr, ptr, %struct.srp_ctx_st, %struct.dane_ctx_st, ptr, ptr, ptr, ptr, i32, i32, ptr, ptr, i64, i64, ptr, ptr, ptr, i64, ptr, ptr, i32, ptr, ptr, ptr, [14 x i32], [24 x ptr], [14 x ptr], [14 x i64], i64, ptr, ptr, ptr, i64, i64, ptr, i64, i64, i32, i32, i32, i32, ptr, i64, ptr, i64, i64, ptr, ptr }
%struct.anon.3 = type { i32, i32, i32, i32, i32, i32, i32, i32, i32, i32, i32 }
%struct.anon.4 = type { ptr, ptr, [16 x i8], ptr, ptr, ptr, ptr, ptr, i32, i8, i64, ptr, i64, ptr, i64, ptr, i64, ptr, ptr, i64, ptr, ptr, ptr, i64, ptr, ptr, ptr, ptr, [32 x i8] }
%struct.dane_ctx_st = type { ptr, ptr, i8, i64 }

@.str = private unnamed_addr constant [25 x i8] c"../openssl/ssl/ssl_rsa.c\00", align 1
@__func__.SSL_use_certificate_file = private unnamed_addr constant [25 x i8] c"SSL_use_certificate_file\00", align 1

; Function Attrs: nounwind uwtable
define i32 @SSL_use_certificate_file(ptr noundef %0, ptr noundef %1, i32 noundef %2) #0 {
  %4 = alloca i32, align 4
  %5 = alloca ptr, align 8
  %6 = alloca ptr, align 8
  %7 = alloca i32, align 4
  %8 = alloca i32, align 4
  %9 = alloca ptr, align 8
  %10 = alloca i32, align 4
  %11 = alloca ptr, align 8
  %12 = alloca ptr, align 8
  %13 = alloca ptr, align 8
  %14 = alloca i32, align 4
  store ptr %0, ptr %5, align 8, !tbaa !3
  store ptr %1, ptr %6, align 8, !tbaa !87
  store i32 %2, ptr %7, align 4, !tbaa !21
  call void @llvm.lifetime.start.p0(i64 4, ptr %8) #6
  call void @llvm.lifetime.start.p0(i64 8, ptr %9) #6
  store ptr null, ptr %9, align 8, !tbaa !88
  call void @llvm.lifetime.start.p0(i64 4, ptr %10) #6
  store i32 0, ptr %10, align 4, !tbaa !21
  call void @llvm.lifetime.start.p0(i64 8, ptr %11) #6
  store ptr null, ptr %11, align 8, !tbaa !8
  call void @llvm.lifetime.start.p0(i64 8, ptr %12) #6
  store ptr null, ptr %12, align 8, !tbaa !8
  %15 = load ptr, ptr %6, align 8, !tbaa !87
  %16 = icmp eq ptr %15, null
  br i1 %16, label %17, label %18

17:                                               ; preds = %3
  call void @ERR_new()
  call void @ERR_set_debug(ptr noundef @.str, i32 noundef 62, ptr noundef @__func__.SSL_use_certificate_file)
  call void (i32, i32, ptr, ...) @ERR_set_error(i32 noundef 20, i32 noundef 786690, ptr noundef null)
  br label %108

18:                                               ; preds = %3
  %19 = call ptr @BIO_s_file()
  %20 = call ptr @BIO_new(ptr noundef %19)
  store ptr %20, ptr %9, align 8, !tbaa !88
  %21 = load ptr, ptr %9, align 8, !tbaa !88
  %22 = icmp eq ptr %21, null
  br i1 %22, label %23, label %24

23:                                               ; preds = %18
  call void @ERR_new()
  call void @ERR_set_debug(ptr noundef @.str, i32 noundef 68, ptr noundef @__func__.SSL_use_certificate_file)
  call void (i32, i32, ptr, ...) @ERR_set_error(i32 noundef 20, i32 noundef 524295, ptr noundef null)
  br label %108

24:                                               ; preds = %18
  %25 = load ptr, ptr %9, align 8, !tbaa !88
  %26 = load ptr, ptr %6, align 8, !tbaa !87
  %27 = call i64 @BIO_ctrl(ptr noundef %25, i32 noundef 108, i64 noundef 3, ptr noundef %26)
  %28 = trunc i64 %27 to i32
  %29 = icmp sle i32 %28, 0
  br i1 %29, label %30, label %31

30:                                               ; preds = %24
  call void @ERR_new()
  call void @ERR_set_debug(ptr noundef @.str, i32 noundef 73, ptr noundef @__func__.SSL_use_certificate_file)
  call void (i32, i32, ptr, ...) @ERR_set_error(i32 noundef 20, i32 noundef 524290, ptr noundef null)
  br label %108

31:                                               ; preds = %24
  %32 = load ptr, ptr %5, align 8, !tbaa !3
  %33 = getelementptr inbounds nuw %struct.ssl_st, ptr %32, i32 0, i32 1
  %34 = load ptr, ptr %33, align 8, !tbaa !89
  %35 = getelementptr inbounds nuw %struct.ssl_ctx_st, ptr %34, i32 0, i32 0
  %36 = load ptr, ptr %35, align 8, !tbaa !90
  %37 = load ptr, ptr %5, align 8, !tbaa !3
  %38 = getelementptr inbounds nuw %struct.ssl_st, ptr %37, i32 0, i32 1
  %39 = load ptr, ptr %38, align 8, !tbaa !89
  %40 = getelementptr inbounds nuw %struct.ssl_ctx_st, ptr %39, i32 0, i32 89
  %41 = load ptr, ptr %40, align 8, !tbaa !104
  %42 = call ptr @X509_new_ex(ptr noundef %36, ptr noundef %41)
  store ptr %42, ptr %12, align 8, !tbaa !8
  %43 = load ptr, ptr %12, align 8, !tbaa !8
  %44 = icmp eq ptr %43, null
  br i1 %44, label %45, label %46

45:                                               ; preds = %31
  call void @ERR_new()
  call void @ERR_set_debug(ptr noundef @.str, i32 noundef 79, ptr noundef @__func__.SSL_use_certificate_file)
  call void (i32, i32, ptr, ...) @ERR_set_error(i32 noundef 20, i32 noundef 524301, ptr noundef null)
  br label %108

46:                                               ; preds = %31
  %47 = load i32, ptr %7, align 4, !tbaa !21
  %48 = icmp eq i32 %47, 2
  br i1 %48, label %49, label %52

49:                                               ; preds = %46
  store i32 524301, ptr %8, align 4, !tbaa !21
  %50 = load ptr, ptr %9, align 8, !tbaa !88
  %51 = call ptr @d2i_X509_bio(ptr noundef %50, ptr noundef %12)
  store ptr %51, ptr %11, align 8, !tbaa !8
  br label %99

52:                                               ; preds = %46
  %53 = load i32, ptr %7, align 4, !tbaa !21
  %54 = icmp eq i32 %53, 1
  br i1 %54, label %55, label %97

55:                                               ; preds = %52
  call void @llvm.lifetime.start.p0(i64 8, ptr %13) #6
  %56 = load ptr, ptr %5, align 8, !tbaa !3
  %57 = icmp eq ptr %56, null
  br i1 %57, label %58, label %59

58:                                               ; preds = %55
  br label %80

59:                                               ; preds = %55
  %60 = load ptr, ptr %5, align 8, !tbaa !3
  %61 = getelementptr inbounds nuw %struct.ssl_st, ptr %60, i32 0, i32 0
  %62 = load i32, ptr %61, align 8, !tbaa !10
  %63 = icmp eq i32 %62, 0
  br i1 %63, label %64, label %66

64:                                               ; preds = %59
  %65 = load ptr, ptr %5, align 8, !tbaa !3
  br label %78

66:                                               ; preds = %59
  %67 = load ptr, ptr %5, align 8, !tbaa !3
  %68 = getelementptr inbounds nuw %struct.ssl_st, ptr %67, i32 0, i32 0
  %69 = load i32, ptr %68, align 8, !tbaa !10
  %70 = and i32 %69, 128
  %71 = icmp ne i32 %70, 0
  br i1 %71, label %72, label %75

72:                                               ; preds = %66
  %73 = load ptr, ptr %5, align 8, !tbaa !3
  %74 = call ptr @ossl_quic_obj_get0_handshake_layer(ptr noundef %73)
  br label %76

75:                                               ; preds = %66
  br label %76

76:                                               ; preds = %75, %72
  %77 = phi ptr [ %74, %72 ], [ null, %75 ]
  br label %78

78:                                               ; preds = %76, %64
  %79 = phi ptr [ %65, %64 ], [ %77, %76 ]
  br label %80

80:                                               ; preds = %78, %58
  %81 = phi ptr [ null, %58 ], [ %79, %78 ]
  store ptr %81, ptr %13, align 8, !tbaa !19
  %82 = load ptr, ptr %13, align 8, !tbaa !19
  %83 = icmp eq ptr %82, null
  br i1 %83, label %84, label %85

84:                                               ; preds = %80
  store i32 2, ptr %14, align 4
  br label %94

85:                                               ; preds = %80
  store i32 524297, ptr %8, align 4, !tbaa !21
  %86 = load ptr, ptr %9, align 8, !tbaa !88
  %87 = load ptr, ptr %13, align 8, !tbaa !19
  %88 = getelementptr inbounds nuw %struct.ssl_connection_st, ptr %87, i32 0, i32 105
  %89 = load ptr, ptr %88, align 8, !tbaa !105
  %90 = load ptr, ptr %13, align 8, !tbaa !19
  %91 = getelementptr inbounds nuw %struct.ssl_connection_st, ptr %90, i32 0, i32 106
  %92 = load ptr, ptr %91, align 8, !tbaa !106
  %93 = call ptr @PEM_read_bio_X509(ptr noundef %86, ptr noundef %12, ptr noundef %89, ptr noundef %92)
  store ptr %93, ptr %11, align 8, !tbaa !8
  store i32 0, ptr %14, align 4
  br label %94

94:                                               ; preds = %84, %85
  call void @llvm.lifetime.end.p0(i64 8, ptr %13) #6
  %95 = load i32, ptr %14, align 4
  switch i32 %95, label %113 [
    i32 0, label %96
    i32 2, label %108
  ]

96:                                               ; preds = %94
  br label %98

97:                                               ; preds = %52
  call void @ERR_new()
  call void @ERR_set_debug(ptr noundef @.str, i32 noundef 95, ptr noundef @__func__.SSL_use_certificate_file)
  call void (i32, i32, ptr, ...) @ERR_set_error(i32 noundef 20, i32 noundef 124, ptr noundef null)
  br label %108

98:                                               ; preds = %96
  br label %99

99:                                               ; preds = %98, %49
  %100 = load ptr, ptr %11, align 8, !tbaa !8
  %101 = icmp eq ptr %100, null
  br i1 %101, label %102, label %104

102:                                              ; preds = %99
  call void @ERR_new()
  call void @ERR_set_debug(ptr noundef @.str, i32 noundef 100, ptr noundef @__func__.SSL_use_certificate_file)
  %103 = load i32, ptr %8, align 4, !tbaa !21
  call void (i32, i32, ptr, ...) @ERR_set_error(i32 noundef 20, i32 noundef %103, ptr noundef null)
  br label %108

104:                                              ; preds = %99
  %105 = load ptr, ptr %5, align 8, !tbaa !3
  %106 = load ptr, ptr %12, align 8, !tbaa !8
  %107 = call i32 @SSL_use_certificate(ptr noundef %105, ptr noundef %106)
  store i32 %107, ptr %10, align 4, !tbaa !21
  br label %108

108:                                              ; preds = %104, %94, %102, %97, %45, %30, %23, %17
  %109 = load ptr, ptr %12, align 8, !tbaa !8
  call void @X509_free(ptr noundef %109)
  %110 = load ptr, ptr %9, align 8, !tbaa !88
  %111 = call i32 @BIO_free(ptr noundef %110)
  %112 = load i32, ptr %10, align 4, !tbaa !21
  store i32 %112, ptr %4, align 4
  store i32 1, ptr %14, align 4
  br label %113

113:                                              ; preds = %108, %94
  call void @llvm.lifetime.end.p0(i64 8, ptr %12) #6
  call void @llvm.lifetime.end.p0(i64 8, ptr %11) #6
  call void @llvm.lifetime.end.p0(i64 4, ptr %10) #6
  call void @llvm.lifetime.end.p0(i64 8, ptr %9) #6
  call void @llvm.lifetime.end.p0(i64 4, ptr %8) #6
  %114 = load i32, ptr %4, align 4
  ret i32 %114
}