; Function Attrs: nounwind uwtable
define range(i32 0, 2) i32 @SSL_use_certificate_file(ptr noundef %0, ptr noundef %1, i32 noundef %2) local_unnamed_addr #0 {
  %4 = alloca ptr, align 8
  call void @llvm.lifetime.start.p0(i64 8, ptr nonnull %4) #6
  store ptr null, ptr %4, align 8, !tbaa !80
  %5 = icmp eq ptr %1, null
  br i1 %5, label %6, label %7

6:                                                ; preds = %3
  tail call void @ERR_new() #6
  tail call void @ERR_set_debug(ptr noundef nonnull @.str, i32 noundef 62, ptr noundef nonnull @__func__.SSL_use_certificate_file) #6
  tail call void (i32, i32, ptr, ...) @ERR_set_error(i32 noundef 20, i32 noundef 786690, ptr noundef null) #6
  br label %.thread39

7:                                                ; preds = %3
  %8 = tail call ptr @BIO_s_file() #6
  %9 = tail call ptr @BIO_new(ptr noundef %8) #6
  %10 = icmp eq ptr %9, null
  br i1 %10, label %11, label %12

11:                                               ; preds = %7
  tail call void @ERR_new() #6
  tail call void @ERR_set_debug(ptr noundef nonnull @.str, i32 noundef 68, ptr noundef nonnull @__func__.SSL_use_certificate_file) #6
  tail call void (i32, i32, ptr, ...) @ERR_set_error(i32 noundef 20, i32 noundef 524295, ptr noundef null) #6
  br label %.thread39

12:                                               ; preds = %7
  %13 = tail call i64 @BIO_ctrl(ptr noundef nonnull %9, i32 noundef 108, i64 noundef 3, ptr noundef nonnull %1) #6
  %14 = trunc i64 %13 to i32
  %15 = icmp slt i32 %14, 1
  br i1 %15, label %16, label %17

16:                                               ; preds = %12
  tail call void @ERR_new() #6
  tail call void @ERR_set_debug(ptr noundef nonnull @.str, i32 noundef 73, ptr noundef nonnull @__func__.SSL_use_certificate_file) #6
  tail call void (i32, i32, ptr, ...) @ERR_set_error(i32 noundef 20, i32 noundef 524290, ptr noundef null) #6
  br label %.thread39

17:                                               ; preds = %12
  %18 = getelementptr inbounds nuw i8, ptr %0, i64 8
  %19 = load ptr, ptr %18, align 8, !tbaa !81
  %20 = load ptr, ptr %19, align 8, !tbaa !82
  %21 = getelementptr inbounds nuw i8, ptr %19, i64 1152
  %22 = load ptr, ptr %21, align 8, !tbaa !96
  %23 = tail call ptr @X509_new_ex(ptr noundef %20, ptr noundef %22) #6
  store ptr %23, ptr %4, align 8, !tbaa !80
  %24 = icmp eq ptr %23, null
  br i1 %24, label %25, label %26

25:                                               ; preds = %17
  tail call void @ERR_new() #6
  tail call void @ERR_set_debug(ptr noundef nonnull @.str, i32 noundef 79, ptr noundef nonnull @__func__.SSL_use_certificate_file) #6
  tail call void (i32, i32, ptr, ...) @ERR_set_error(i32 noundef 20, i32 noundef 524301, ptr noundef null) #6
  br label %.thread39

26:                                               ; preds = %17
  switch i32 %2, label %43 [
    i32 2, label %27
    i32 1, label %29
  ]

27:                                               ; preds = %26
  %28 = call ptr @d2i_X509_bio(ptr noundef nonnull %9, ptr noundef nonnull %4) #6
  br label %44

29:                                               ; preds = %26
  %30 = load i32, ptr %0, align 8, !tbaa !3
  %31 = icmp eq i32 %30, 0
  br i1 %31, label %.thread38, label %32

32:                                               ; preds = %29
  %33 = and i32 %30, 128
  %.not = icmp eq i32 %33, 0
  br i1 %.not, label %.thread39, label %34

34:                                               ; preds = %32
  %35 = tail call ptr @ossl_quic_obj_get0_handshake_layer(ptr noundef nonnull %0) #6
  %36 = icmp eq ptr %35, null
  br i1 %36, label %.thread39, label %.thread38

.thread38:                                        ; preds = %29, %34
  %37 = phi ptr [ %35, %34 ], [ %0, %29 ]
  %38 = getelementptr inbounds nuw i8, ptr %37, i64 5400
  %39 = load ptr, ptr %38, align 8, !tbaa !97
  %40 = getelementptr inbounds nuw i8, ptr %37, i64 5408
  %41 = load ptr, ptr %40, align 8, !tbaa !98
  %42 = call ptr @PEM_read_bio_X509(ptr noundef nonnull %9, ptr noundef nonnull %4, ptr noundef %39, ptr noundef %41) #6
  br label %44

43:                                               ; preds = %26
  tail call void @ERR_new() #6
  tail call void @ERR_set_debug(ptr noundef nonnull @.str, i32 noundef 95, ptr noundef nonnull @__func__.SSL_use_certificate_file) #6
  tail call void (i32, i32, ptr, ...) @ERR_set_error(i32 noundef 20, i32 noundef 124, ptr noundef null) #6
  br label %.thread39

44:                                               ; preds = %.thread38, %27
  %.028 = phi i32 [ 524301, %27 ], [ 524297, %.thread38 ]
  %.025 = phi ptr [ %28, %27 ], [ %42, %.thread38 ]
  %45 = icmp eq ptr %.025, null
  br i1 %45, label %46, label %47

46:                                               ; preds = %44
  call void @ERR_new() #6
  call void @ERR_set_debug(ptr noundef nonnull @.str, i32 noundef 100, ptr noundef nonnull @__func__.SSL_use_certificate_file) #6
  call void (i32, i32, ptr, ...) @ERR_set_error(i32 noundef 20, i32 noundef %.028, ptr noundef null) #6
  br label %.thread39

47:                                               ; preds = %44
  %48 = load ptr, ptr %4, align 8, !tbaa !80
  %49 = call i32 @SSL_use_certificate(ptr noundef nonnull %0, ptr noundef %48)
  br label %.thread39

.thread39:                                        ; preds = %32, %34, %47, %46, %43, %25, %16, %11, %6
  %.027 = phi ptr [ null, %6 ], [ null, %11 ], [ %9, %16 ], [ %9, %25 ], [ %9, %46 ], [ %9, %47 ], [ %9, %43 ], [ %9, %34 ], [ %9, %32 ]
  %.026 = phi i32 [ 0, %6 ], [ 0, %11 ], [ 0, %16 ], [ 0, %25 ], [ 0, %46 ], [ %49, %47 ], [ 0, %43 ], [ 0, %34 ], [ 0, %32 ]
  %50 = load ptr, ptr %4, align 8, !tbaa !80
  call void @X509_free(ptr noundef %50) #6
  %51 = call i32 @BIO_free(ptr noundef %.027) #6
  call void @llvm.lifetime.end.p0(i64 8, ptr nonnull %4) #6
  ret i32 %.026
}